; ModuleID = '36/1675.c'
source_filename = "36/1675.c"
target datalayout = "e-m:e-p270:32:32-p271:32:32-p272:64:64-i64:64-f80:128-n8:16:32:64-S128"
target triple = "x86_64-pc-linux-gnu"

@.str = private unnamed_addr constant [3 x i8] c"%c\00", align 1
@.str.1 = private unnamed_addr constant [3 x i8] c"NO\00", align 1
@.str.2 = private unnamed_addr constant [4 x i8] c"YES\00", align 1

; Function Attrs: noinline nounwind uwtable
define dso_local i32 @main() #0 {
  %1 = alloca i32, align 4
  %2 = alloca [50 x i8], align 16
  %3 = alloca [50 x i8], align 16
  %4 = alloca i32, align 4
  %5 = alloca i32, align 4
  %6 = alloca i32, align 4
  %7 = alloca i32, align 4
  %8 = alloca i32, align 4
  store i32 0, i32* %1, align 4
  store i32 0, i32* %4, align 4
  br label %9

9:                                                ; preds = %16, %0
  %10 = load i32, i32* %4, align 4
  %11 = add nsw i32 %10, 1
  store i32 %11, i32* %4, align 4
  %12 = load i32, i32* %4, align 4
  %13 = sext i32 %12 to i64
  %14 = getelementptr inbounds [50 x i8], [50 x i8]* %2, i64 0, i64 %13
  %15 = call i32 (i8*, ...) @__isoc99_scanf(i8* getelementptr inbounds ([3 x i8], [3 x i8]* @.str, i64 0, i64 0), i8* %14)
  br label %16

16:                                               ; preds = %9
  %17 = load i32, i32* %4, align 4
  %18 = sext i32 %17 to i64
  %19 = getelementptr inbounds [50 x i8], [50 x i8]* %2, i64 0, i64 %18
  %20 = load i8, i8* %19, align 1
  %21 = sext i8 %20 to i32
  %22 = icmp ne i32 %21, 32
  br i1 %22, label %9, label %23

23:                                               ; preds = %16
  %24 = load i32, i32* %4, align 4
  store i32 %24, i32* %7, align 4
  store i32 0, i32* %4, align 4
  br label %25

25:                                               ; preds = %32, %23
  %26 = load i32, i32* %4, align 4
  %27 = add nsw i32 %26, 1
  store i32 %27, i32* %4, align 4
  %28 = load i32, i32* %4, align 4
  %29 = sext i32 %28 to i64
  %30 = getelementptr inbounds [50 x i8], [50 x i8]* %3, i64 0, i64 %29
  %31 = call i32 (i8*, ...) @__isoc99_scanf(i8* getelementptr inbounds ([3 x i8], [3 x i8]* @.str, i64 0, i64 0), i8* %30)
  br label %32

32:                                               ; preds = %25
  %33 = load i32, i32* %4, align 4
  %34 = sext i32 %33 to i64
  %35 = getelementptr inbounds [50 x i8], [50 x i8]* %3, i64 0, i64 %34
  %36 = load i8, i8* %35, align 1
  %37 = sext i8 %36 to i32
  %38 = icmp ne i32 %37, 10
  br i1 %38, label %25, label %39

39:                                               ; preds = %32
  %40 = load i32, i32* %4, align 4
  %41 = load i32, i32* %7, align 4
  %42 = icmp ne i32 %40, %41
  br i1 %42, label %43, label %45

43:                                               ; preds = %39
  %44 = call i32 (i8*, ...) @printf(i8* getelementptr inbounds ([3 x i8], [3 x i8]* @.str.1, i64 0, i64 0))
  br label %107

45:                                               ; preds = %39
  %46 = load i32, i32* %7, align 4
  %47 = sub nsw i32 %46, 1
  store i32 %47, i32* %7, align 4
  br label %48

48:                                               ; preds = %99, %45
  store i32 0, i32* %8, align 4
  %49 = load i32, i32* %7, align 4
  store i32 %49, i32* %4, align 4
  br label %50

50:                                               ; preds = %87, %48
  %51 = load i32, i32* %4, align 4
  %52 = icmp sge i32 %51, 1
  br i1 %52, label %53, label %90

53:                                               ; preds = %50
  %54 = load i32, i32* %4, align 4
  %55 = sext i32 %54 to i64
  %56 = getelementptr inbounds [50 x i8], [50 x i8]* %3, i64 0, i64 %55
  %57 = load i8, i8* %56, align 1
  %58 = sext i8 %57 to i32
  %59 = load i32, i32* %7, align 4
  %60 = sext i32 %59 to i64
  %61 = getelementptr inbounds [50 x i8], [50 x i8]* %2, i64 0, i64 %60
  %62 = load i8, i8* %61, align 1
  %63 = sext i8 %62 to i32
  %64 = icmp eq i32 %58, %63
  br i1 %64, label %65, label %86

65:                                               ; preds = %53
  store i32 1, i32* %8, align 4
  %66 = load i32, i32* %4, align 4
  store i32 %66, i32* %5, align 4
  br label %67

67:                                               ; preds = %80, %65
  %68 = load i32, i32* %5, align 4
  %69 = load i32, i32* %7, align 4
  %70 = icmp slt i32 %68, %69
  br i1 %70, label %71, label %83

71:                                               ; preds = %67
  %72 = load i32, i32* %5, align 4
  %73 = add nsw i32 %72, 1
  %74 = sext i32 %73 to i64
  %75 = getelementptr inbounds [50 x i8], [50 x i8]* %3, i64 0, i64 %74
  %76 = load i8, i8* %75, align 1
  %77 = load i32, i32* %5, align 4
  %78 = sext i32 %77 to i64
  %79 = getelementptr inbounds [50 x i8], [50 x i8]* %3, i64 0, i64 %78
  store i8 %76, i8* %79, align 1
  br label %80

80:                                               ; preds = %71
  %81 = load i32, i32* %5, align 4
  %82 = add nsw i32 %81, 1
  store i32 %82, i32* %5, align 4
  br label %67

83:                                               ; preds = %67
  %84 = load i32, i32* %7, align 4
  %85 = sub nsw i32 %84, 1
  store i32 %85, i32* %7, align 4
  br label %91

86:                                               ; preds = %53
  br label %87

87:                                               ; preds = %86
  %88 = load i32, i32* %4, align 4
  %89 = add nsw i32 %88, -1
  store i32 %89, i32* %4, align 4
  br label %50

90:                                               ; preds = %50
  br label %91

91:                                               ; preds = %90, %83
  %92 = load i32, i32* %8, align 4
  %93 = icmp eq i32 %92, 0
  br i1 %93, label %94, label %96

94:                                               ; preds = %91
  %95 = call i32 (i8*, ...) @printf(i8* getelementptr inbounds ([3 x i8], [3 x i8]* @.str.1, i64 0, i64 0))
  br label %107

96:                                               ; preds = %91
  %97 = load i32, i32* %7, align 4
  %98 = icmp sge i32 %97, 1
  br i1 %98, label %99, label %100

99:                                               ; preds = %96
  br label %48

100:                                              ; preds = %96
  br label %101

101:                                              ; preds = %100
  %102 = load i32, i32* %8, align 4
  %103 = icmp eq i32 %102, 1
  br i1 %103, label %104, label %106

104:                                              ; preds = %101
  %105 = call i32 (i8*, ...) @printf(i8* getelementptr inbounds ([4 x i8], [4 x i8]* @.str.2, i64 0, i64 0))
  br label %106

106:                                              ; preds = %104, %101
  br label %107

107:                                              ; preds = %106, %94, %43
  ret i32 0
}

declare dso_local i32 @__isoc99_scanf(i8*, ...) #1

declare dso_local i32 @printf(i8*, ...) #1


!llvm.module.flags = !{!0}
!llvm.ident = !{!1}

!0 = !{i32 1, !"wchar_size", i32 4}
!1 = !{!"clang version 10.0.0-4ubuntu1 "}
